target datalayout = "e-m:e-p270:32:32-p271:32:32-p272:64:64-i64:64-i128:128-f80:128-n8:16:32:64-S128"
target triple = "x86_64-pc-linux-gnu"

%"struct.boost::urls::url_base::op_t" = type { ptr, ptr, ptr, ptr }
%"class.boost::core::basic_string_view" = type { ptr, i64 }
%"class.boost::urls::url_view_base" = type { [8 x i8], %"struct.boost::urls::detail::url_impl", ptr }
%"struct.boost::urls::detail::url_impl" = type <{ ptr, [8 x i64], [7 x i64], i64, i64, [16 x i8], i16, [2 x i8], i32, i16, i8, [5 x i8] }>
%"struct.std::array" = type { [16 x i8] }
%"class.boost::urls::ipv6_address" = type { %"struct.std::array" }

@_ZN5boost4urls8url_base4op_tD1Ev = unnamed_addr alias void (ptr), ptr @_ZN5boost4urls8url_base4op_tD2Ev
@_ZN5boost4urls8url_base4op_tC1ERS1_PNS_4core17basic_string_viewIcEES7_ = unnamed_addr alias void (ptr, ptr, ptr, ptr), ptr @_ZN5boost4urls8url_base4op_tC2ERS1_PNS_4core17basic_string_viewIcEES7_

; Function Attrs: mustprogress nounwind uwtable
define linkonce_odr hidden noundef ptr @_ZNSt14__array_traitsIhLm16EE6_S_ptrERA16_Kh(ptr noundef nonnull align 1 dereferenceable(16) %0) #2 comdat align 2 {
  %2 = alloca ptr, align 8
  store ptr %0, ptr %2, align 8, !tbaa !7
  %3 = load ptr, ptr %2, align 8, !tbaa !7
  %4 = getelementptr inbounds [16 x i8], ptr %3, i64 0, i64 0
  ret ptr %4
}

; Function Attrs: mustprogress nounwind willreturn memory(none) uwtable
define linkonce_odr hidden noundef i64 @_ZNKSt5arrayIhLm16EE4sizeEv(ptr noundef nonnull align 1 dereferenceable(16) %0) #12 comdat align 2 {
  %2 = alloca ptr, align 8
  store ptr %0, ptr %2, align 8, !tbaa !7
  ret i64 16
}

; Function Attrs: mustprogress nounwind willreturn memory(none) uwtable
define linkonce_odr hidden noundef ptr @_ZNSt5arrayIhLm16EE4dataEv(ptr noundef nonnull align 1 dereferenceable(16) %0) #12 comdat align 2 {
  %2 = alloca ptr, align 8
  store ptr %0, ptr %2, align 8, !tbaa !7
  %3 = load ptr, ptr %2, align 8
  %4 = getelementptr inbounds nuw %"struct.std::array", ptr %3, i32 0, i32 0
  %5 = call noundef ptr @_ZNSt14__array_traitsIhLm16EE6_S_ptrERA16_Kh(ptr noundef nonnull align 1 dereferenceable(16) %4) #9
  ret ptr %5
}

; Function Attrs: mustprogress nounwind uwtable
define linkonce_odr hidden { i64, i64 } @_ZNK5boost4urls12ipv6_address8to_bytesEv(ptr noundef nonnull align 1 dereferenceable(16) %0) #2 comdat align 2 {
  %2 = alloca %"struct.std::array", align 1
  %3 = alloca ptr, align 8
  store ptr %0, ptr %3, align 8, !tbaa !7
  %4 = load ptr, ptr %3, align 8
  %5 = getelementptr inbounds nuw %"class.boost::urls::ipv6_address", ptr %4, i32 0, i32 0
  call void @llvm.memcpy.p0.p0.i64(ptr align 1 %2, ptr align 1 %5, i64 16, i1 false), !tbaa.struct !84
  %6 = getelementptr inbounds nuw %"struct.std::array", ptr %2, i32 0, i32 0
  %7 = load { i64, i64 }, ptr %6, align 1
  ret { i64, i64 } %7
}

; Function Attrs: mustprogress nounwind uwtable
define linkonce_odr hidden noundef i64 @_ZNK5boost4core17basic_string_viewIcE4sizeEv(ptr noundef nonnull align 8 dereferenceable(16) %0) #2 comdat align 2 {
  %2 = alloca ptr, align 8
  store ptr %0, ptr %2, align 8, !tbaa !7
  %3 = load ptr, ptr %2, align 8
  %4 = getelementptr inbounds nuw %"class.boost::core::basic_string_view", ptr %3, i32 0, i32 1
  %5 = load i64, ptr %4, align 8, !tbaa !60
  ret i64 %5
}

; Function Attrs: mustprogress uwtable
define noundef nonnull align 8 dereferenceable(216) ptr @_ZN5boost4urls8url_base13set_host_ipv6ERKNS0_12ipv6_addressE(ptr noundef nonnull align 8 dereferenceable(216) %0, ptr noundef nonnull align 1 dereferenceable(16) %1) #5 align 2 personality ptr @__gxx_personality_v0 {
  %3 = alloca ptr, align 8
  %4 = alloca ptr, align 8
  %5 = alloca %"struct.boost::urls::url_base::op_t", align 8
  %6 = alloca [51 x i8], align 16
  %7 = alloca %"class.boost::core::basic_string_view", align 8
  %8 = alloca ptr, align 8
  %9 = alloca i32, align 4
  %10 = alloca i64, align 8
  %11 = alloca ptr, align 8
  %12 = alloca %"struct.std::array", align 1
  store ptr %0, ptr %3, align 8, !tbaa !7
  store ptr %1, ptr %4, align 8, !tbaa !7
  %13 = load ptr, ptr %3, align 8
  call void @llvm.lifetime.start.p0(i64 32, ptr %5) #9
  call void @_ZN5boost4urls8url_base4op_tC1ERS1_PNS_4core17basic_string_viewIcEES7_(ptr noundef nonnull align 8 dereferenceable(32) %5, ptr noundef nonnull align 8 dereferenceable(216) %13, ptr noundef null, ptr noundef null) #9
  call void @llvm.lifetime.start.p0(i64 51, ptr %6) #9
  call void @llvm.lifetime.start.p0(i64 16, ptr %7) #9
  %14 = load ptr, ptr %4, align 8, !tbaa !7
  %15 = getelementptr inbounds [51 x i8], ptr %6, i64 0, i64 0
  %16 = getelementptr inbounds i8, ptr %15, i64 1
  %17 = invoke { ptr, i64 } @_ZNK5boost4urls12ipv6_address9to_bufferEPcm(ptr noundef nonnull align 1 dereferenceable(16) %14, ptr noundef %16, i64 noundef 49)
          to label %18 unwind label %56

18:                                               ; preds = %2
  %19 = getelementptr inbounds nuw { ptr, i64 }, ptr %7, i32 0, i32 0
  %20 = extractvalue { ptr, i64 } %17, 0
  store ptr %20, ptr %19, align 8
  %21 = getelementptr inbounds nuw { ptr, i64 }, ptr %7, i32 0, i32 1
  %22 = extractvalue { ptr, i64 } %17, 1
  store i64 %22, ptr %21, align 8
  %23 = getelementptr inbounds [51 x i8], ptr %6, i64 0, i64 0
  store i8 91, ptr %23, align 16, !tbaa !32
  %24 = call noundef i64 @_ZNK5boost4core17basic_string_viewIcE4sizeEv(ptr noundef nonnull align 8 dereferenceable(16) %7) #9
  %25 = add i64 %24, 1
  %26 = getelementptr inbounds nuw [51 x i8], ptr %6, i64 0, i64 %25
  store i8 93, ptr %26, align 1, !tbaa !32
  call void @llvm.lifetime.start.p0(i64 8, ptr %10) #9
  %27 = call noundef i64 @_ZNK5boost4core17basic_string_viewIcE4sizeEv(ptr noundef nonnull align 8 dereferenceable(16) %7) #9
  %28 = add i64 %27, 2
  store i64 %28, ptr %10, align 8, !tbaa !21
  call void @llvm.lifetime.start.p0(i64 8, ptr %11) #9
  %29 = load i64, ptr %10, align 8, !tbaa !21
  %30 = invoke noundef ptr @_ZN5boost4urls8url_base13set_host_implEmRNS1_4op_tE(ptr noundef nonnull align 8 dereferenceable(216) %13, i64 noundef %29, ptr noundef nonnull align 8 dereferenceable(32) %5)
          to label %31 unwind label %60

31:                                               ; preds = %18
  store ptr %30, ptr %11, align 8, !tbaa !7
  %32 = load ptr, ptr %11, align 8, !tbaa !7
  %33 = getelementptr inbounds [51 x i8], ptr %6, i64 0, i64 0
  %34 = load i64, ptr %10, align 8, !tbaa !21
  call void @llvm.memcpy.p0.p0.i64(ptr align 1 %32, ptr align 16 %33, i64 %34, i1 false)
  %35 = load i64, ptr %10, align 8, !tbaa !21
  %36 = getelementptr inbounds i8, ptr %13, i64 8
  %37 = getelementptr inbounds nuw %"class.boost::urls::url_view_base", ptr %36, i32 0, i32 1
  %38 = getelementptr inbounds nuw %"struct.boost::urls::detail::url_impl", ptr %37, i32 0, i32 2
  %39 = getelementptr inbounds [7 x i64], ptr %38, i64 0, i64 2
  store i64 %35, ptr %39, align 8, !tbaa !21
  %40 = getelementptr inbounds i8, ptr %13, i64 8
  %41 = getelementptr inbounds nuw %"class.boost::urls::url_view_base", ptr %40, i32 0, i32 1
  %42 = getelementptr inbounds nuw %"struct.boost::urls::detail::url_impl", ptr %41, i32 0, i32 8
  store i32 3, ptr %42, align 4, !tbaa !63
  call void @llvm.lifetime.start.p0(i64 16, ptr %12) #9
  %43 = load ptr, ptr %4, align 8, !tbaa !7
  %44 = call { i64, i64 } @_ZNK5boost4urls12ipv6_address8to_bytesEv(ptr noundef nonnull align 1 dereferenceable(16) %43) #9
  %45 = getelementptr inbounds nuw %"struct.std::array", ptr %12, i32 0, i32 0
  %46 = getelementptr inbounds nuw { i64, i64 }, ptr %45, i32 0, i32 0
  %47 = extractvalue { i64, i64 } %44, 0
  store i64 %47, ptr %46, align 1
  %48 = getelementptr inbounds nuw { i64, i64 }, ptr %45, i32 0, i32 1
  %49 = extractvalue { i64, i64 } %44, 1
  store i64 %49, ptr %48, align 1
  %50 = getelementptr inbounds i8, ptr %13, i64 8
  %51 = getelementptr inbounds nuw %"class.boost::urls::url_view_base", ptr %50, i32 0, i32 1
  %52 = getelementptr inbounds nuw %"struct.boost::urls::detail::url_impl", ptr %51, i32 0, i32 5
  %53 = getelementptr inbounds [16 x i8], ptr %52, i64 0, i64 0
  %54 = call noundef ptr @_ZNSt5arrayIhLm16EE4dataEv(ptr noundef nonnull align 1 dereferenceable(16) %12) #23
  %55 = call noundef i64 @_ZNKSt5arrayIhLm16EE4sizeEv(ptr noundef nonnull align 1 dereferenceable(16) %12) #23
  call void @llvm.memcpy.p0.p0.i64(ptr align 8 %53, ptr align 1 %54, i64 %55, i1 false)
  call void @llvm.lifetime.end.p0(i64 16, ptr %12) #9
  call void @llvm.lifetime.end.p0(i64 8, ptr %11) #9
  call void @llvm.lifetime.end.p0(i64 8, ptr %10) #9
  call void @llvm.lifetime.end.p0(i64 16, ptr %7) #9
  call void @llvm.lifetime.end.p0(i64 51, ptr %6) #9
  call void @_ZN5boost4urls8url_base4op_tD1Ev(ptr noundef nonnull align 8 dereferenceable(32) %5) #9
  call void @llvm.lifetime.end.p0(i64 32, ptr %5) #9
  ret ptr %13

56:                                               ; preds = %2
  %57 = landingpad { ptr, i32 }
          cleanup
  %58 = extractvalue { ptr, i32 } %57, 0
  store ptr %58, ptr %8, align 8
  %59 = extractvalue { ptr, i32 } %57, 1
  store i32 %59, ptr %9, align 4
  br label %64

60:                                               ; preds = %18
  %61 = landingpad { ptr, i32 }
          cleanup
  %62 = extractvalue { ptr, i32 } %61, 0
  store ptr %62, ptr %8, align 8
  %63 = extractvalue { ptr, i32 } %61, 1
  store i32 %63, ptr %9, align 4
  call void @llvm.lifetime.end.p0(i64 8, ptr %11) #9
  call void @llvm.lifetime.end.p0(i64 8, ptr %10) #9
  br label %64

64:                                               ; preds = %60, %56
  call void @llvm.lifetime.end.p0(i64 16, ptr %7) #9
  call void @llvm.lifetime.end.p0(i64 51, ptr %6) #9
  call void @_ZN5boost4urls8url_base4op_tD1Ev(ptr noundef nonnull align 8 dereferenceable(32) %5) #9
  call void @llvm.lifetime.end.p0(i64 32, ptr %5) #9
  br label %65

65:                                               ; preds = %64
  %66 = load ptr, ptr %8, align 8
  %67 = load i32, ptr %9, align 4
  %68 = insertvalue { ptr, i32 } poison, ptr %66, 0
  %69 = insertvalue { ptr, i32 } %68, i32 %67, 1
  resume { ptr, i32 } %69
}