; Function Attrs: mustprogress uwtable
define noundef nonnull align 8 dereferenceable(216) ptr @_ZN5boost4urls8url_base13set_host_ipv6ERKNS0_12ipv6_addressE(ptr noundef nonnull returned align 8 dereferenceable(216) %0, ptr noundef nonnull align 1 dereferenceable(16) %1) local_unnamed_addr #10 align 2 personality ptr @__gxx_personality_v0 {
  %3 = alloca %"struct.boost::urls::url_base::op_t", align 8
  %4 = alloca [51 x i8], align 16
  call void @llvm.lifetime.start.p0(i64 32, ptr nonnull %3) #30
  call void @_ZN5boost4urls8url_base4op_tC1ERS1_PNS_4core17basic_string_viewIcEES7_(ptr noundef nonnull align 8 dereferenceable(32) %3, ptr noundef nonnull align 8 dereferenceable(216) %0, ptr noundef null, ptr noundef null) #30
  call void @llvm.lifetime.start.p0(i64 51, ptr nonnull %4) #30
  %5 = getelementptr inbounds i8, ptr %4, i64 1
  %6 = invoke { ptr, i64 } @_ZNK5boost4urls12ipv6_address9to_bufferEPcm(ptr noundef nonnull align 1 dereferenceable(16) %1, ptr noundef nonnull %5, i64 noundef 49)
          to label %7 unwind label %17

7:                                                ; preds = %2
  %8 = extractvalue { ptr, i64 } %6, 1
  store i8 91, ptr %4, align 16, !tbaa !25
  %9 = add i64 %8, 1
  %10 = getelementptr inbounds nuw [51 x i8], ptr %4, i64 0, i64 %9
  store i8 93, ptr %10, align 1, !tbaa !25
  %11 = add i64 %8, 2
  %12 = invoke noundef ptr @_ZN5boost4urls8url_base13set_host_implEmRNS1_4op_tE(ptr noundef nonnull align 8 dereferenceable(216) %0, i64 noundef %11, ptr noundef nonnull align 8 dereferenceable(32) %3)
          to label %13 unwind label %19

13:                                               ; preds = %7
  call void @llvm.memcpy.p0.p0.i64(ptr align 1 %12, ptr nonnull align 16 %4, i64 %11, i1 false)
  %14 = getelementptr inbounds i8, ptr %0, i64 104
  store i64 %11, ptr %14, align 8, !tbaa !14
  %15 = getelementptr inbounds i8, ptr %0, i64 180
  store i32 3, ptr %15, align 4, !tbaa !73
  %.sroa.0.0.copyload.i = load i64, ptr %1, align 1
  %.sroa.2.0..sroa_idx.i = getelementptr inbounds i8, ptr %1, i64 8
  %.sroa.2.0.copyload.i = load i64, ptr %.sroa.2.0..sroa_idx.i, align 1, !tbaa !25
  %16 = getelementptr inbounds i8, ptr %0, i64 160
  store i64 %.sroa.0.0.copyload.i, ptr %16, align 8
  %.sroa.4.0..sroa_idx = getelementptr inbounds i8, ptr %0, i64 168
  store i64 %.sroa.2.0.copyload.i, ptr %.sroa.4.0..sroa_idx, align 8
  call void @llvm.lifetime.end.p0(i64 51, ptr nonnull %4) #30
  call void @_ZN5boost4urls8url_base4op_tD1Ev(ptr noundef nonnull align 8 dereferenceable(32) %3) #30
  call void @llvm.lifetime.end.p0(i64 32, ptr nonnull %3) #30
  ret ptr %0

17:                                               ; preds = %2
  %18 = landingpad { ptr, i32 }
          cleanup
  br label %21

19:                                               ; preds = %7
  %20 = landingpad { ptr, i32 }
          cleanup
  br label %21

21:                                               ; preds = %19, %17
  %.pn = phi { ptr, i32 } [ %20, %19 ], [ %18, %17 ]
  call void @llvm.lifetime.end.p0(i64 51, ptr nonnull %4) #30
  call void @_ZN5boost4urls8url_base4op_tD1Ev(ptr noundef nonnull align 8 dereferenceable(32) %3) #30
  call void @llvm.lifetime.end.p0(i64 32, ptr nonnull %3) #30
  resume { ptr, i32 } %.pn
}